target datalayout = "e-m:e-p270:32:32-p271:32:32-p272:64:64-i64:64-i128:128-f80:128-n8:16:32:64-S128"
target triple = "x86_64-pc-linux-gnu"

%struct.VLCElem = type { %union.anon.1 }
%union.anon.1 = type { %struct.anon }
%struct.anon = type { i16, i16 }

@block_type_vlc = internal global [2 x [4 x [32 x %struct.VLCElem]]] zeroinitializer, align 16

; Function Attrs: cold nounwind optsize uwtable
define internal void @init_vlcs() #0 {
  %1 = alloca i32, align 4
  %2 = alloca i32, align 4
  call void @llvm.lifetime.start.p0(i64 4, ptr %1) #10
  call void @llvm.lifetime.start.p0(i64 4, ptr %2) #10
  store i32 0, ptr %1, align 4, !tbaa !35
  br label %3

3:                                                ; preds = %38, %0
  %4 = load i32, ptr %1, align 4, !tbaa !35
  %5 = icmp slt i32 %4, 2
  br i1 %5, label %6, label %41

6:                                                ; preds = %3
  store i32 0, ptr %2, align 4, !tbaa !35
  br label %7

7:                                                ; preds = %34, %6
  %8 = load i32, ptr %2, align 4, !tbaa !35
  %9 = icmp slt i32 %8, 4
  br i1 %9, label %10, label %37

10:                                               ; preds = %7
  %11 = load i32, ptr %1, align 4, !tbaa !35
  %12 = sext i32 %11 to i64
  %13 = getelementptr inbounds [2 x [4 x [32 x %struct.VLCElem]]], ptr @block_type_vlc, i64 0, i64 %12
  %14 = load i32, ptr %2, align 4, !tbaa !35
  %15 = sext i32 %14 to i64
  %16 = getelementptr inbounds [4 x [32 x %struct.VLCElem]], ptr %13, i64 0, i64 %15
  %17 = getelementptr inbounds [32 x %struct.VLCElem], ptr %16, i64 0, i64 0
  %18 = load i32, ptr %1, align 4, !tbaa !35
  %19 = sext i32 %18 to i64
  %20 = getelementptr inbounds [2 x [4 x [8 x [2 x i8]]]], ptr @block_type_tab, i64 0, i64 %19
  %21 = load i32, ptr %2, align 4, !tbaa !35
  %22 = sext i32 %21 to i64
  %23 = getelementptr inbounds [4 x [8 x [2 x i8]]], ptr %20, i64 0, i64 %22
  %24 = getelementptr inbounds [8 x [2 x i8]], ptr %23, i64 0, i64 0
  %25 = getelementptr inbounds [2 x i8], ptr %24, i64 0, i64 1
  %26 = load i32, ptr %1, align 4, !tbaa !35
  %27 = sext i32 %26 to i64
  %28 = getelementptr inbounds [2 x [4 x [8 x [2 x i8]]]], ptr @block_type_tab, i64 0, i64 %27
  %29 = load i32, ptr %2, align 4, !tbaa !35
  %30 = sext i32 %29 to i64
  %31 = getelementptr inbounds [4 x [8 x [2 x i8]]], ptr %28, i64 0, i64 %30
  %32 = getelementptr inbounds [8 x [2 x i8]], ptr %31, i64 0, i64 0
  %33 = getelementptr inbounds [2 x i8], ptr %32, i64 0, i64 0
  call void @ff_vlc_init_table_sparse(ptr noundef %17, i32 noundef 32, i32 noundef 5, i32 noundef 7, ptr noundef %25, i32 noundef 2, i32 noundef 1, ptr noundef %33, i32 noundef 2, i32 noundef 1, ptr noundef null, i32 noundef 0, i32 noundef 0, i32 noundef 0)
  br label %34

34:                                               ; preds = %10
  %35 = load i32, ptr %2, align 4, !tbaa !35
  %36 = add nsw i32 %35, 1
  store i32 %36, ptr %2, align 4, !tbaa !35
  br label %7, !llvm.loop !78

37:                                               ; preds = %7
  br label %38

38:                                               ; preds = %37
  %39 = load i32, ptr %1, align 4, !tbaa !35
  %40 = add nsw i32 %39, 1
  store i32 %40, ptr %1, align 4, !tbaa !35
  br label %3, !llvm.loop !79

41:                                               ; preds = %3
  call void @llvm.lifetime.end.p0(i64 4, ptr %2) #10
  call void @llvm.lifetime.end.p0(i64 4, ptr %1) #10
  ret void
}