; Function Attrs: cold nounwind optsize uwtable
define internal void @init_vlcs() #0 {
  br label %.preheader

.preheader:                                       ; preds = %0, %6
  %1 = phi i1 [ true, %0 ], [ false, %6 ]
  %indvars.iv14 = phi i64 [ 0, %0 ], [ 1, %6 ]
  br label %2

2:                                                ; preds = %.preheader, %2
  %indvars.iv = phi i64 [ 0, %.preheader ], [ %indvars.iv.next, %2 ]
  %3 = getelementptr inbounds nuw [2 x [4 x [32 x %struct.VLCElem]]], ptr @block_type_vlc, i64 0, i64 %indvars.iv14, i64 %indvars.iv
  %4 = getelementptr inbounds nuw [2 x [4 x [8 x [2 x i8]]]], ptr @block_type_tab, i64 0, i64 %indvars.iv14, i64 %indvars.iv
  %5 = getelementptr inbounds nuw i8, ptr %4, i64 1
  tail call void @ff_vlc_init_table_sparse(ptr noundef nonnull %3, i32 noundef 32, i32 noundef 5, i32 noundef 7, ptr noundef nonnull %5, i32 noundef 2, i32 noundef 1, ptr noundef nonnull %4, i32 noundef 2, i32 noundef 1, ptr noundef null, i32 noundef 0, i32 noundef 0, i32 noundef 0) #9
  %indvars.iv.next = add nuw nsw i64 %indvars.iv, 1
  %exitcond.not = icmp eq i64 %indvars.iv.next, 4
  br i1 %exitcond.not, label %6, label %2, !llvm.loop !80

6:                                                ; preds = %2
  br i1 %1, label %.preheader, label %7, !llvm.loop !81

7:                                                ; preds = %6
  ret void
}